target datalayout = "e-m:e-p270:32:32-p271:32:32-p272:64:64-i64:64-i128:128-f80:128-n8:16:32:64-S128"
target triple = "x86_64-pc-linux-gnu"

%struct.H5T_conv_func_t = type { i8, %union.anon.14 }
%union.anon.14 = type { ptr }
%struct.H5T_path_t = type { [32 x i8], ptr, ptr, %struct.H5T_conv_func_t, i8, i8, %struct.H5T_cdata_t }
%struct.H5T_cdata_t = type { i32, i32, i8, ptr }

; Function Attrs: nounwind uwtable
define ptr @H5T_path_compound_subset(ptr noundef %0) #0 {
  %2 = alloca ptr, align 8
  %3 = alloca ptr, align 8
  store ptr %0, ptr %2, align 8
  store ptr null, ptr %3, align 8
  %4 = load ptr, ptr %2, align 8
  %5 = getelementptr inbounds %struct.H5T_path_t, ptr %4, i32 0, i32 3
  %6 = getelementptr inbounds %struct.H5T_conv_func_t, ptr %5, i32 0, i32 0
  %7 = load i8, ptr %6, align 8
  %8 = trunc i8 %7 to i1
  br i1 %8, label %19, label %9

9:                                                ; preds = %1
  %10 = load ptr, ptr %2, align 8
  %11 = getelementptr inbounds %struct.H5T_path_t, ptr %10, i32 0, i32 3
  %12 = getelementptr inbounds %struct.H5T_conv_func_t, ptr %11, i32 0, i32 1
  %13 = load ptr, ptr %12, align 8
  %14 = icmp eq ptr %13, @H5T__conv_struct
  br i1 %14, label %15, label %19

15:                                               ; preds = %9
  %16 = load ptr, ptr %2, align 8
  %17 = getelementptr inbounds %struct.H5T_path_t, ptr %16, i32 0, i32 6
  %18 = call ptr @H5T__conv_struct_subset(ptr noundef %17)
  store ptr %18, ptr %3, align 8
  br label %19

19:                                               ; preds = %15, %9, %1
  %20 = load ptr, ptr %3, align 8
  ret ptr %20
}