; Function Attrs: nounwind uwtable
define ptr @H5T_path_compound_subset(ptr noundef %0) local_unnamed_addr #0 {
  %2 = getelementptr inbounds i8, ptr %0, i64 48
  %3 = load i8, ptr %2, align 8
  %4 = trunc i8 %3 to i1
  br i1 %4, label %12, label %5

5:                                                ; preds = %1
  %6 = getelementptr inbounds i8, ptr %0, i64 56
  %7 = load ptr, ptr %6, align 8
  %8 = icmp eq ptr %7, @H5T__conv_struct
  br i1 %8, label %9, label %12

9:                                                ; preds = %5
  %10 = getelementptr inbounds i8, ptr %0, i64 72
  %11 = tail call ptr @H5T__conv_struct_subset(ptr noundef nonnull %10) #17
  br label %12

12:                                               ; preds = %9, %5, %1
  %.0 = phi ptr [ null, %1 ], [ %11, %9 ], [ null, %5 ]
  ret ptr %.0
}